target datalayout = "e-m:e-p270:32:32-p271:32:32-p272:64:64-i64:64-i128:128-f80:128-n8:16:32:64-S128"
target triple = "x86_64-pc-linux-gnu"

%struct.expert_field = type { i32, i32 }
%struct._packet_info = type { ptr, ptr, i32, i32, %struct.nstime_t, %struct.nstime_t, %struct.nstime_t, i8, ptr, ptr, ptr, ptr, %struct._address, %struct._address, %struct._address, %struct._address, %struct._address, %struct._address, i32, ptr, i8, [3 x i8], %struct.anon, i32, i32, i32, i32, ptr, i8, ptr, ptr, i16, i16, i32, i32, i16, i32, i32, ptr, ptr, ptr, i8, i8, i16, i16, i16, i32, i16, i16, ptr, ptr, ptr, ptr, ptr, i32, i32 }
%struct.nstime_t = type { i64, i32 }
%struct._address = type { i32, i32, ptr, ptr }
%struct.anon = type { i8, [3 x i8] }

@ei_bacapp_bad_tag = internal global %struct.expert_field zeroinitializer, align 4
@.str.2598 = private unnamed_addr constant [19 x i8] c"ObjectIdentifier: \00", align 1

; Function Attrs: nounwind null_pointer_is_valid sspstrong uwtable
define internal zeroext i1 @tag_is_opening(i8 noundef zeroext %0) #3 {
  %2 = alloca i8, align 1
  store i8 %0, ptr %2, align 1
  %3 = load i8, ptr %2, align 1
  %4 = zext i8 %3 to i32
  %5 = and i32 %4, 7
  %6 = icmp eq i32 %5, 6
  ret i1 %6
}

; Function Attrs: nounwind null_pointer_is_valid sspstrong uwtable
define internal zeroext i1 @tag_is_closing(i8 noundef zeroext %0) #3 {
  %2 = alloca i8, align 1
  store i8 %0, ptr %2, align 1
  %3 = load i8, ptr %2, align 1
  %4 = zext i8 %3 to i32
  %5 = and i32 %4, 7
  %6 = icmp eq i32 %5, 7
  ret i1 %6
}

; Function Attrs: null_pointer_is_valid sspstrong uwtable
define internal i32 @fTagHeader(ptr noundef %0, ptr noundef %1, i32 noundef %2, ptr noundef %3, ptr noundef %4, ptr noundef %5) #0 {
  %7 = alloca ptr, align 8
  %8 = alloca ptr, align 8
  %9 = alloca i32, align 4
  %10 = alloca ptr, align 8
  %11 = alloca ptr, align 8
  %12 = alloca ptr, align 8
  store ptr %0, ptr %7, align 8
  store ptr %1, ptr %8, align 8
  store i32 %2, ptr %9, align 4
  store ptr %3, ptr %10, align 8
  store ptr %4, ptr %11, align 8
  store ptr %5, ptr %12, align 8
  %13 = load ptr, ptr %7, align 8
  %14 = load ptr, ptr %8, align 8
  %15 = load i32, ptr %9, align 4
  %16 = load ptr, ptr %10, align 8
  %17 = load ptr, ptr %11, align 8
  %18 = load ptr, ptr %12, align 8
  %19 = call i32 @fTagHeaderTree(ptr noundef %13, ptr noundef %14, ptr noundef null, i32 noundef %15, ptr noundef %16, ptr noundef %17, ptr noundef %18)
  ret i32 %19
}

; Function Attrs: null_pointer_is_valid sspstrong uwtable
define internal i32 @fWriteAccessSpecification(ptr noundef %0, ptr noundef %1, ptr noundef %2, i32 noundef %3) #0 {
  %5 = alloca i32, align 4
  %6 = alloca ptr, align 8
  %7 = alloca ptr, align 8
  %8 = alloca ptr, align 8
  %9 = alloca i32, align 4
  %10 = alloca i32, align 4
  %11 = alloca i32, align 4
  %12 = alloca i8, align 1
  %13 = alloca i8, align 1
  %14 = alloca i32, align 4
  %15 = alloca i32, align 4
  store ptr %0, ptr %6, align 8
  store ptr %1, ptr %7, align 8
  store ptr %2, ptr %8, align 8
  store i32 %3, ptr %9, align 4
  call void @llvm.lifetime.start.p0(i64 4, ptr %10) #7
  store i32 0, ptr %10, align 4
  call void @llvm.lifetime.start.p0(i64 4, ptr %11) #7
  call void @llvm.lifetime.start.p0(i64 1, ptr %12) #7
  call void @llvm.lifetime.start.p0(i64 1, ptr %13) #7
  call void @llvm.lifetime.start.p0(i64 4, ptr %14) #7
  br label %16

16:                                               ; preds = %70, %29, %4
  %17 = load ptr, ptr %6, align 8
  %18 = load i32, ptr %9, align 4
  %19 = call i32 @tvb_reported_length_remaining(ptr noundef %17, i32 noundef %18)
  %20 = icmp sgt i32 %19, 0
  br i1 %20, label %21, label %71

21:                                               ; preds = %16
  %22 = load i32, ptr %9, align 4
  store i32 %22, ptr %10, align 4
  %23 = load ptr, ptr %6, align 8
  %24 = load ptr, ptr %7, align 8
  %25 = load i32, ptr %9, align 4
  %26 = call i32 @fTagHeader(ptr noundef %23, ptr noundef %24, i32 noundef %25, ptr noundef %12, ptr noundef %13, ptr noundef %14)
  store i32 %26, ptr %11, align 4
  %27 = load i8, ptr %13, align 1
  %28 = call zeroext i1 @tag_is_closing(i8 noundef zeroext %27)
  br i1 %28, label %29, label %33

29:                                               ; preds = %21
  %30 = load i32, ptr %11, align 4
  %31 = load i32, ptr %9, align 4
  %32 = add i32 %31, %30
  store i32 %32, ptr %9, align 4
  br label %16, !llvm.loop !180

33:                                               ; preds = %21
  %34 = load i8, ptr %12, align 1
  %35 = zext i8 %34 to i32
  switch i32 %35, label %63 [
    i32 0, label %36
    i32 1, label %42
  ]

36:                                               ; preds = %33
  %37 = load ptr, ptr %6, align 8
  %38 = load ptr, ptr %7, align 8
  %39 = load ptr, ptr %8, align 8
  %40 = load i32, ptr %9, align 4
  %41 = call i32 @fObjectIdentifier(ptr noundef %37, ptr noundef %38, ptr noundef %39, i32 noundef %40, ptr noundef @.str.2598)
  store i32 %41, ptr %9, align 4
  br label %65

42:                                               ; preds = %33
  %43 = load i8, ptr %13, align 1
  %44 = call zeroext i1 @tag_is_opening(i8 noundef zeroext %43)
  br i1 %44, label %45, label %58

45:                                               ; preds = %42
  %46 = load ptr, ptr %6, align 8
  %47 = load ptr, ptr %7, align 8
  %48 = load ptr, ptr %8, align 8
  %49 = load i32, ptr %9, align 4
  %50 = call i32 @fTagHeaderTree(ptr noundef %46, ptr noundef %47, ptr noundef %48, i32 noundef %49, ptr noundef %12, ptr noundef %13, ptr noundef %14)
  %51 = load i32, ptr %9, align 4
  %52 = add i32 %51, %50
  store i32 %52, ptr %9, align 4
  %53 = load ptr, ptr %6, align 8
  %54 = load ptr, ptr %7, align 8
  %55 = load ptr, ptr %8, align 8
  %56 = load i32, ptr %9, align 4
  %57 = call i32 @fBACnetPropertyValue(ptr noundef %53, ptr noundef %54, ptr noundef %55, i32 noundef %56)
  store i32 %57, ptr %9, align 4
  br label %62

58:                                               ; preds = %42
  %59 = load ptr, ptr %7, align 8
  %60 = load ptr, ptr %8, align 8
  %61 = call ptr @expert_add_info(ptr noundef %59, ptr noundef %60, ptr noundef @ei_bacapp_bad_tag)
  br label %62

62:                                               ; preds = %58, %45
  br label %65

63:                                               ; preds = %33
  %64 = load i32, ptr %9, align 4
  store i32 %64, ptr %5, align 4
  store i32 1, ptr %15, align 4
  br label %73

65:                                               ; preds = %62, %36
  %66 = load i32, ptr %9, align 4
  %67 = load i32, ptr %10, align 4
  %68 = icmp ule i32 %66, %67
  br i1 %68, label %69, label %70

69:                                               ; preds = %65
  br label %71

70:                                               ; preds = %65
  br label %16, !llvm.loop !180

71:                                               ; preds = %69, %16
  %72 = load i32, ptr %9, align 4
  store i32 %72, ptr %5, align 4
  store i32 1, ptr %15, align 4
  br label %73

73:                                               ; preds = %71, %63
  call void @llvm.lifetime.end.p0(i64 4, ptr %14) #7
  call void @llvm.lifetime.end.p0(i64 1, ptr %13) #7
  call void @llvm.lifetime.end.p0(i64 1, ptr %12) #7
  call void @llvm.lifetime.end.p0(i64 4, ptr %11) #7
  call void @llvm.lifetime.end.p0(i64 4, ptr %10) #7
  %74 = load i32, ptr %5, align 4
  ret i32 %74
}

; Function Attrs: null_pointer_is_valid sspstrong uwtable
define internal i32 @fWritePropertyMultipleRequest(ptr noundef %0, ptr noundef %1, ptr noundef %2, i32 noundef %3) #0 {
  %5 = alloca i32, align 4
  %6 = alloca ptr, align 8
  %7 = alloca ptr, align 8
  %8 = alloca ptr, align 8
  %9 = alloca i32, align 4
  store ptr %0, ptr %6, align 8
  store ptr %1, ptr %7, align 8
  store ptr %2, ptr %8, align 8
  store i32 %3, ptr %9, align 4
  %10 = load i32, ptr %9, align 4
  %11 = load ptr, ptr %6, align 8
  %12 = call i32 @tvb_reported_length(ptr noundef %11)
  %13 = icmp uge i32 %10, %12
  br i1 %13, label %14, label %16

14:                                               ; preds = %4
  %15 = load i32, ptr %9, align 4
  store i32 %15, ptr %5, align 4
  br label %25

16:                                               ; preds = %4
  %17 = load ptr, ptr %7, align 8
  %18 = getelementptr inbounds nuw %struct._packet_info, ptr %17, i32 0, i32 1
  %19 = load ptr, ptr %18, align 8
  call void @col_set_writable(ptr noundef %19, i32 noundef 25, i1 noundef zeroext false)
  %20 = load ptr, ptr %6, align 8
  %21 = load ptr, ptr %7, align 8
  %22 = load ptr, ptr %8, align 8
  %23 = load i32, ptr %9, align 4
  %24 = call i32 @fWriteAccessSpecification(ptr noundef %20, ptr noundef %21, ptr noundef %22, i32 noundef %23)
  store i32 %24, ptr %5, align 4
  br label %25

25:                                               ; preds = %16, %14
  %26 = load i32, ptr %5, align 4
  ret i32 %26
}