; Function Attrs: null_pointer_is_valid sspstrong uwtable
define internal fastcc i32 @fWritePropertyMultipleRequest(ptr noundef nonnull %0, ptr noundef %1, ptr noundef %2, i32 noundef range(i32 0, 7) %3) unnamed_addr #0 {
  %5 = alloca i8, align 1
  %6 = alloca i8, align 1
  %7 = alloca i32, align 4
  %8 = tail call i32 @tvb_reported_length(ptr noundef nonnull %0)
  %.not = icmp ult i32 %3, %8
  br i1 %.not, label %9, label %34

9:                                                ; preds = %4
  %10 = getelementptr inbounds nuw i8, ptr %1, i64 8
  %11 = load ptr, ptr %10, align 8
  tail call void @col_set_writable(ptr noundef %11, i32 noundef 25, i1 noundef zeroext false)
  call void @llvm.lifetime.start.p0(i64 1, ptr nonnull %5) #6
  call void @llvm.lifetime.start.p0(i64 1, ptr nonnull %6) #6
  call void @llvm.lifetime.start.p0(i64 4, ptr nonnull %7) #6
  %12 = tail call i32 @tvb_reported_length_remaining(ptr noundef nonnull %0, i32 noundef range(i32 0, 7) %3)
  %13 = icmp sgt i32 %12, 0
  br i1 %13, label %.lr.ph.i, label %fWriteAccessSpecification.exit

.lr.ph.i:                                         ; preds = %9, %.backedge.i
  %.02731.i = phi i32 [ %.027.be.i, %.backedge.i ], [ %3, %9 ]
  %14 = call fastcc range(i32 1, 8) i32 @fTagHeaderTree(ptr noundef nonnull %0, ptr noundef %1, ptr noundef null, i32 noundef %.02731.i, ptr noundef nonnull %5, ptr noundef nonnull %6, ptr noundef nonnull %7)
  %15 = load i8, ptr %6, align 1
  %16 = and i8 %15, 7
  %17 = icmp eq i8 %16, 7
  br i1 %17, label %18, label %22

18:                                               ; preds = %.lr.ph.i
  %19 = add i32 %14, %.02731.i
  br label %.backedge.i

.backedge.i:                                      ; preds = %33, %18
  %.027.be.i = phi i32 [ %19, %18 ], [ %.2.i, %33 ]
  %20 = tail call i32 @tvb_reported_length_remaining(ptr noundef nonnull %0, i32 noundef %.027.be.i)
  %21 = icmp sgt i32 %20, 0
  br i1 %21, label %.lr.ph.i, label %fWriteAccessSpecification.exit, !llvm.loop !177

22:                                               ; preds = %.lr.ph.i
  %23 = load i8, ptr %5, align 1
  switch i8 %23, label %fWriteAccessSpecification.exit [
    i8 0, label %24
    i8 1, label %26
  ]

24:                                               ; preds = %22
  %25 = tail call fastcc i32 @fObjectIdentifier(ptr noundef nonnull %0, ptr noundef %1, ptr noundef %2, i32 noundef %.02731.i, ptr noundef nonnull @.str.2598)
  br label %33

26:                                               ; preds = %22
  %27 = icmp eq i8 %16, 6
  br i1 %27, label %28, label %.thread.i

28:                                               ; preds = %26
  %29 = call fastcc i32 @fTagHeaderTree(ptr noundef nonnull %0, ptr noundef %1, ptr noundef %2, i32 noundef %.02731.i, ptr noundef nonnull %5, ptr noundef nonnull %6, ptr noundef nonnull %7)
  %30 = add i32 %29, %.02731.i
  %31 = tail call fastcc i32 @fBACnetPropertyValue(ptr noundef nonnull %0, ptr noundef %1, ptr noundef %2, i32 noundef %30)
  br label %33

.thread.i:                                        ; preds = %26
  %32 = tail call ptr @expert_add_info(ptr noundef %1, ptr noundef %2, ptr noundef nonnull @ei_bacapp_bad_tag)
  br label %fWriteAccessSpecification.exit

33:                                               ; preds = %28, %24
  %.2.i = phi i32 [ %31, %28 ], [ %25, %24 ]
  %.not.i = icmp ugt i32 %.2.i, %.02731.i
  br i1 %.not.i, label %.backedge.i, label %fWriteAccessSpecification.exit

fWriteAccessSpecification.exit:                   ; preds = %.backedge.i, %22, %33, %9, %.thread.i
  %.0.i = phi i32 [ %.02731.i, %.thread.i ], [ %3, %9 ], [ %.027.be.i, %.backedge.i ], [ %.2.i, %33 ], [ %.02731.i, %22 ]
  call void @llvm.lifetime.end.p0(i64 4, ptr nonnull %7) #6
  call void @llvm.lifetime.end.p0(i64 1, ptr nonnull %6) #6
  call void @llvm.lifetime.end.p0(i64 1, ptr nonnull %5) #6
  br label %34

34:                                               ; preds = %4, %fWriteAccessSpecification.exit
  %.0 = phi i32 [ %.0.i, %fWriteAccessSpecification.exit ], [ %3, %4 ]
  ret i32 %.0
}